target datalayout = "e-m:e-p270:32:32-p271:32:32-p272:64:64-i64:64-i128:128-f80:128-n8:16:32:64-S128"
target triple = "x86_64-pc-linux-gnu"

%"struct.duckdb_zstd::ZSTD_frameHeader" = type { i64, i64, i32, i32, i32, i32, i32, i32, i32 }

; Function Attrs: mustprogress nounwind uwtable
define internal noundef i32 @_ZN11duckdb_zstdL11ERR_isErrorEm(i64 noundef %0) #2 {
  %2 = alloca i64, align 8
  store i64 %0, ptr %2, align 8, !tbaa !34
  %3 = load i64, ptr %2, align 8, !tbaa !34
  %4 = icmp ugt i64 %3, -120
  %5 = zext i1 %4 to i32
  ret i32 %5
}

; Function Attrs: mustprogress uwtable
define noundef i64 @_ZN11duckdb_zstd19ZSTD_getFrameHeaderEPNS_16ZSTD_frameHeaderEPKvm(ptr noundef %0, ptr noundef %1, i64 noundef %2) #0 {
  %4 = alloca ptr, align 8
  %5 = alloca ptr, align 8
  %6 = alloca i64, align 8
  store ptr %0, ptr %4, align 8, !tbaa !33
  store ptr %1, ptr %5, align 8, !tbaa !33
  store i64 %2, ptr %6, align 8, !tbaa !34
  %7 = load ptr, ptr %4, align 8, !tbaa !33
  %8 = load ptr, ptr %5, align 8, !tbaa !33
  %9 = load i64, ptr %6, align 8, !tbaa !34
  %10 = call noundef i64 @_ZN11duckdb_zstd28ZSTD_getFrameHeader_advancedEPNS_16ZSTD_frameHeaderEPKvmNS_13ZSTD_format_eE(ptr noundef %7, ptr noundef %8, i64 noundef %9, i32 noundef 0)
  ret i64 %10
}

; Function Attrs: mustprogress uwtable
define noundef i32 @_ZN11duckdb_zstd24ZSTD_getDictID_fromFrameEPKvm(ptr noundef %0, i64 noundef %1) #0 {
  %3 = alloca i32, align 4
  %4 = alloca ptr, align 8
  %5 = alloca i64, align 8
  %6 = alloca %"struct.duckdb_zstd::ZSTD_frameHeader", align 8
  %7 = alloca i64, align 8
  %8 = alloca i32, align 4
  store ptr %0, ptr %4, align 8, !tbaa !33
  store i64 %1, ptr %5, align 8, !tbaa !34
  call void @llvm.lifetime.start.p0(i64 48, ptr %6) #12
  call void @llvm.memset.p0.i64(ptr align 8 %6, i8 0, i64 48, i1 false)
  call void @llvm.lifetime.start.p0(i64 8, ptr %7) #12
  %9 = load ptr, ptr %4, align 8, !tbaa !33
  %10 = load i64, ptr %5, align 8, !tbaa !34
  %11 = call noundef i64 @_ZN11duckdb_zstd19ZSTD_getFrameHeaderEPNS_16ZSTD_frameHeaderEPKvm(ptr noundef %6, ptr noundef %9, i64 noundef %10)
  store i64 %11, ptr %7, align 8, !tbaa !34
  %12 = load i64, ptr %7, align 8, !tbaa !34
  %13 = call noundef i32 @_ZN11duckdb_zstdL11ERR_isErrorEm(i64 noundef %12)
  %14 = icmp ne i32 %13, 0
  br i1 %14, label %15, label %16

15:                                               ; preds = %2
  store i32 0, ptr %3, align 4
  store i32 1, ptr %8, align 4
  br label %19

16:                                               ; preds = %2
  %17 = getelementptr inbounds nuw %"struct.duckdb_zstd::ZSTD_frameHeader", ptr %6, i32 0, i32 5
  %18 = load i32, ptr %17, align 4, !tbaa !63
  store i32 %18, ptr %3, align 4
  store i32 1, ptr %8, align 4
  br label %19

19:                                               ; preds = %16, %15
  call void @llvm.lifetime.end.p0(i64 8, ptr %7) #12
  call void @llvm.lifetime.end.p0(i64 48, ptr %6) #12
  %20 = load i32, ptr %3, align 4
  ret i32 %20
}